target datalayout = "e-m:e-p270:32:32-p271:32:32-p272:64:64-i64:64-i128:128-f80:128-n8:16:32:64-S128"
target triple = "x86_64-pc-linux-gnu"

@hf_synphasor_status_word_mask_normal_state = internal global i32 0, align 4
@hf_synphasor_status_word_mask_valid_bits = internal global i32 0, align 4
@ett_conf_dgmask = internal global i32 0, align 4
@ett_status_word_mask = internal global i32 0, align 4
@.str.319 = private unnamed_addr constant [36 x i8] c"Masks for digital status words (%u)\00", align 1
@.str.320 = private unnamed_addr constant [27 x i8] c"Mask for status word #%u: \00", align 1

; Function Attrs: null_pointer_is_valid sspstrong uwtable
define internal i32 @dissect_DIGUNIT(ptr noundef %0, ptr noundef %1, i32 noundef %2, i32 noundef %3) #0 {
  %5 = alloca i32, align 4
  %6 = alloca ptr, align 8
  %7 = alloca ptr, align 8
  %8 = alloca i32, align 4
  %9 = alloca i32, align 4
  %10 = alloca ptr, align 8
  %11 = alloca ptr, align 8
  %12 = alloca i32, align 4
  %13 = alloca i32, align 4
  store ptr %0, ptr %6, align 8
  store ptr %1, ptr %7, align 8
  store i32 %2, ptr %8, align 4
  store i32 %3, ptr %9, align 4
  call void @llvm.lifetime.start.p0(i64 8, ptr %10) #8
  call void @llvm.lifetime.start.p0(i64 8, ptr %11) #8
  call void @llvm.lifetime.start.p0(i64 4, ptr %12) #8
  %14 = load i32, ptr %9, align 4
  %15 = icmp eq i32 0, %14
  br i1 %15, label %16, label %18

16:                                               ; preds = %4
  %17 = load i32, ptr %8, align 4
  store i32 %17, ptr %5, align 4
  store i32 1, ptr %13, align 4
  br label %58

18:                                               ; preds = %4
  %19 = load ptr, ptr %7, align 8
  %20 = load ptr, ptr %6, align 8
  %21 = load i32, ptr %8, align 4
  %22 = load i32, ptr %9, align 4
  %23 = mul i32 4, %22
  %24 = load i32, ptr @ett_conf_dgmask, align 4
  %25 = load i32, ptr %9, align 4
  %26 = call ptr (ptr, ptr, i32, i32, i32, ptr, ptr, ...) @proto_tree_add_subtree_format(ptr noundef %19, ptr noundef %20, i32 noundef %21, i32 noundef %23, i32 noundef %24, ptr noundef null, ptr noundef @.str.319, i32 noundef %25)
  store ptr %26, ptr %10, align 8
  store i32 0, ptr %12, align 4
  br label %27

27:                                               ; preds = %53, %18
  %28 = load i32, ptr %12, align 4
  %29 = load i32, ptr %9, align 4
  %30 = icmp slt i32 %28, %29
  br i1 %30, label %31, label %56

31:                                               ; preds = %27
  %32 = load ptr, ptr %10, align 8
  %33 = load ptr, ptr %6, align 8
  %34 = load i32, ptr %8, align 4
  %35 = load i32, ptr @ett_status_word_mask, align 4
  %36 = load i32, ptr %12, align 4
  %37 = add i32 %36, 1
  %38 = call ptr (ptr, ptr, i32, i32, i32, ptr, ptr, ...) @proto_tree_add_subtree_format(ptr noundef %32, ptr noundef %33, i32 noundef %34, i32 noundef 4, i32 noundef %35, ptr noundef null, ptr noundef @.str.320, i32 noundef %37)
  store ptr %38, ptr %11, align 8
  %39 = load ptr, ptr %11, align 8
  %40 = load i32, ptr @hf_synphasor_status_word_mask_normal_state, align 4
  %41 = load ptr, ptr %6, align 8
  %42 = load i32, ptr %8, align 4
  %43 = call ptr @proto_tree_add_item(ptr noundef %39, i32 noundef %40, ptr noundef %41, i32 noundef %42, i32 noundef 2, i32 noundef 0)
  %44 = load i32, ptr %8, align 4
  %45 = add i32 %44, 2
  store i32 %45, ptr %8, align 4
  %46 = load ptr, ptr %11, align 8
  %47 = load i32, ptr @hf_synphasor_status_word_mask_valid_bits, align 4
  %48 = load ptr, ptr %6, align 8
  %49 = load i32, ptr %8, align 4
  %50 = call ptr @proto_tree_add_item(ptr noundef %46, i32 noundef %47, ptr noundef %48, i32 noundef %49, i32 noundef 2, i32 noundef 0)
  %51 = load i32, ptr %8, align 4
  %52 = add i32 %51, 2
  store i32 %52, ptr %8, align 4
  br label %53

53:                                               ; preds = %31
  %54 = load i32, ptr %12, align 4
  %55 = add i32 %54, 1
  store i32 %55, ptr %12, align 4
  br label %27, !llvm.loop !30

56:                                               ; preds = %27
  %57 = load i32, ptr %8, align 4
  store i32 %57, ptr %5, align 4
  store i32 1, ptr %13, align 4
  br label %58

58:                                               ; preds = %56, %16
  call void @llvm.lifetime.end.p0(i64 4, ptr %12) #8
  call void @llvm.lifetime.end.p0(i64 8, ptr %11) #8
  call void @llvm.lifetime.end.p0(i64 8, ptr %10) #8
  %59 = load i32, ptr %5, align 4
  ret i32 %59
}