; Function Attrs: null_pointer_is_valid sspstrong uwtable
define internal fastcc noundef i32 @dissect_DIGUNIT(ptr noundef %0, ptr noundef %1, i32 noundef %2, i32 noundef range(i32 0, 65536) %3) unnamed_addr #0 {
  %5 = icmp eq i32 %3, 0
  br i1 %5, label %.loopexit, label %6

6:                                                ; preds = %4
  %7 = shl nuw nsw i32 %3, 2
  %8 = load i32, ptr @ett_conf_dgmask, align 4
  %9 = tail call ptr (ptr, ptr, i32, i32, i32, ptr, ptr, ...) @proto_tree_add_subtree_format(ptr noundef %1, ptr noundef %0, i32 noundef %2, i32 noundef %7, i32 noundef %8, ptr noundef null, ptr noundef nonnull @.str.319, i32 noundef %3)
  br label %10

10:                                               ; preds = %6, %10
  %.027 = phi i32 [ 0, %6 ], [ %12, %10 ]
  %.02426 = phi i32 [ %2, %6 ], [ %19, %10 ]
  %11 = load i32, ptr @ett_status_word_mask, align 4
  %12 = add nuw nsw i32 %.027, 1
  %13 = tail call ptr (ptr, ptr, i32, i32, i32, ptr, ptr, ...) @proto_tree_add_subtree_format(ptr noundef %9, ptr noundef %0, i32 noundef %.02426, i32 noundef 4, i32 noundef %11, ptr noundef null, ptr noundef nonnull @.str.320, i32 noundef %12)
  %14 = load i32, ptr @hf_synphasor_status_word_mask_normal_state, align 4
  %15 = tail call ptr @proto_tree_add_item(ptr noundef %13, i32 noundef %14, ptr noundef %0, i32 noundef %.02426, i32 noundef 2, i32 noundef 0)
  %16 = add i32 %.02426, 2
  %17 = load i32, ptr @hf_synphasor_status_word_mask_valid_bits, align 4
  %18 = tail call ptr @proto_tree_add_item(ptr noundef %13, i32 noundef %17, ptr noundef %0, i32 noundef %16, i32 noundef 2, i32 noundef 0)
  %19 = add i32 %.02426, 4
  %exitcond.not = icmp eq i32 %12, %3
  br i1 %exitcond.not, label %.loopexit, label %10, !llvm.loop !29

.loopexit:                                        ; preds = %10, %4
  %.023 = phi i32 [ %2, %4 ], [ %19, %10 ]
  ret i32 %.023
}